; Function Attrs: nounwind uwtable
define dso_local void @trace2_cmd_error_va_fl(ptr noundef %0, i32 noundef %1, ptr noundef %2, ptr noundef %3) local_unnamed_addr #0 {
  %.b = load i1, ptr @trace2_enabled, align 4
  br i1 %.b, label %.preheader, label %.loopexit

.preheader:                                       ; preds = %4, %11
  %indvars.iv = phi i64 [ %indvars.iv.next, %11 ], [ 0, %4 ]
  %.01014 = phi ptr [ %13, %11 ], [ @tr2_tgt_normal, %4 ]
  %5 = load ptr, ptr %.01014, align 8, !tbaa !14
  %6 = tail call i32 @tr2_dst_trace_want(ptr noundef %5) #11
  %.not12 = icmp eq i32 %6, 0
  br i1 %.not12, label %11, label %7

7:                                                ; preds = %.preheader
  %8 = getelementptr inbounds nuw i8, ptr %.01014, i64 64
  %9 = load ptr, ptr %8, align 8, !tbaa !38
  %.not13 = icmp eq ptr %9, null
  br i1 %.not13, label %11, label %10

10:                                               ; preds = %7
  tail call void %9(ptr noundef %0, i32 noundef %1, ptr noundef %2, ptr noundef %3) #11
  br label %11

11:                                               ; preds = %.preheader, %10, %7
  %indvars.iv.next = add nuw nsw i64 %indvars.iv, 1
  %12 = getelementptr inbounds nuw [4 x ptr], ptr @tr2_tgt_builtins, i64 0, i64 %indvars.iv.next
  %13 = load ptr, ptr %12, align 8, !tbaa !10
  %.not = icmp eq i64 %indvars.iv.next, 3
  br i1 %.not, label %.loopexit, label %.preheader, !llvm.loop !39

.loopexit:                                        ; preds = %11, %4
  ret void
}